target datalayout = "e-m:e-p270:32:32-p271:32:32-p272:64:64-i64:64-i128:128-f80:128-n8:16:32:64-S128"
target triple = "x86_64-pc-linux-gnu"

%struct.t_blocka = type { i32, ptr, i32, ptr, i32, i32 }
%struct.gmx_ana_indexmap_t = type { i32, ptr, ptr, %struct.t_blocka, ptr, %struct.t_blocka, i8 }

; Function Attrs: mustprogress nounwind uwtable
define void @_Z22gmx_ana_indexmap_clearP18gmx_ana_indexmap_t(ptr noundef %0) #1 {
  %2 = alloca ptr, align 8
  store ptr %0, ptr %2, align 8, !tbaa !476
  %3 = load ptr, ptr %2, align 8, !tbaa !476
  %4 = getelementptr inbounds nuw %struct.gmx_ana_indexmap_t, ptr %3, i32 0, i32 0
  store i32 0, ptr %4, align 8, !tbaa !478
  %5 = load ptr, ptr %2, align 8, !tbaa !476
  %6 = getelementptr inbounds nuw %struct.gmx_ana_indexmap_t, ptr %5, i32 0, i32 1
  store ptr null, ptr %6, align 8, !tbaa !480
  %7 = load ptr, ptr %2, align 8, !tbaa !476
  %8 = getelementptr inbounds nuw %struct.gmx_ana_indexmap_t, ptr %7, i32 0, i32 2
  store ptr null, ptr %8, align 8, !tbaa !481
  %9 = load ptr, ptr %2, align 8, !tbaa !476
  %10 = getelementptr inbounds nuw %struct.gmx_ana_indexmap_t, ptr %9, i32 0, i32 3
  %11 = getelementptr inbounds nuw %struct.t_blocka, ptr %10, i32 0, i32 0
  store i32 0, ptr %11, align 8, !tbaa !482
  %12 = load ptr, ptr %2, align 8, !tbaa !476
  %13 = getelementptr inbounds nuw %struct.gmx_ana_indexmap_t, ptr %12, i32 0, i32 3
  %14 = getelementptr inbounds nuw %struct.t_blocka, ptr %13, i32 0, i32 1
  store ptr null, ptr %14, align 8, !tbaa !483
  %15 = load ptr, ptr %2, align 8, !tbaa !476
  %16 = getelementptr inbounds nuw %struct.gmx_ana_indexmap_t, ptr %15, i32 0, i32 3
  %17 = getelementptr inbounds nuw %struct.t_blocka, ptr %16, i32 0, i32 4
  store i32 0, ptr %17, align 8, !tbaa !484
  %18 = load ptr, ptr %2, align 8, !tbaa !476
  %19 = getelementptr inbounds nuw %struct.gmx_ana_indexmap_t, ptr %18, i32 0, i32 3
  %20 = getelementptr inbounds nuw %struct.t_blocka, ptr %19, i32 0, i32 2
  store i32 0, ptr %20, align 8, !tbaa !485
  %21 = load ptr, ptr %2, align 8, !tbaa !476
  %22 = getelementptr inbounds nuw %struct.gmx_ana_indexmap_t, ptr %21, i32 0, i32 3
  %23 = getelementptr inbounds nuw %struct.t_blocka, ptr %22, i32 0, i32 3
  store ptr null, ptr %23, align 8, !tbaa !486
  %24 = load ptr, ptr %2, align 8, !tbaa !476
  %25 = getelementptr inbounds nuw %struct.gmx_ana_indexmap_t, ptr %24, i32 0, i32 3
  %26 = getelementptr inbounds nuw %struct.t_blocka, ptr %25, i32 0, i32 5
  store i32 0, ptr %26, align 4, !tbaa !487
  %27 = load ptr, ptr %2, align 8, !tbaa !476
  %28 = getelementptr inbounds nuw %struct.gmx_ana_indexmap_t, ptr %27, i32 0, i32 4
  store ptr null, ptr %28, align 8, !tbaa !488
  %29 = load ptr, ptr %2, align 8, !tbaa !476
  %30 = getelementptr inbounds nuw %struct.gmx_ana_indexmap_t, ptr %29, i32 0, i32 5
  %31 = getelementptr inbounds nuw %struct.t_blocka, ptr %30, i32 0, i32 0
  store i32 0, ptr %31, align 8, !tbaa !489
  %32 = load ptr, ptr %2, align 8, !tbaa !476
  %33 = getelementptr inbounds nuw %struct.gmx_ana_indexmap_t, ptr %32, i32 0, i32 5
  %34 = getelementptr inbounds nuw %struct.t_blocka, ptr %33, i32 0, i32 1
  store ptr null, ptr %34, align 8, !tbaa !490
  %35 = load ptr, ptr %2, align 8, !tbaa !476
  %36 = getelementptr inbounds nuw %struct.gmx_ana_indexmap_t, ptr %35, i32 0, i32 5
  %37 = getelementptr inbounds nuw %struct.t_blocka, ptr %36, i32 0, i32 2
  store i32 0, ptr %37, align 8, !tbaa !491
  %38 = load ptr, ptr %2, align 8, !tbaa !476
  %39 = getelementptr inbounds nuw %struct.gmx_ana_indexmap_t, ptr %38, i32 0, i32 5
  %40 = getelementptr inbounds nuw %struct.t_blocka, ptr %39, i32 0, i32 3
  store ptr null, ptr %40, align 8, !tbaa !492
  %41 = load ptr, ptr %2, align 8, !tbaa !476
  %42 = getelementptr inbounds nuw %struct.gmx_ana_indexmap_t, ptr %41, i32 0, i32 5
  %43 = getelementptr inbounds nuw %struct.t_blocka, ptr %42, i32 0, i32 4
  store i32 0, ptr %43, align 8, !tbaa !493
  %44 = load ptr, ptr %2, align 8, !tbaa !476
  %45 = getelementptr inbounds nuw %struct.gmx_ana_indexmap_t, ptr %44, i32 0, i32 5
  %46 = getelementptr inbounds nuw %struct.t_blocka, ptr %45, i32 0, i32 5
  store i32 0, ptr %46, align 4, !tbaa !494
  %47 = load ptr, ptr %2, align 8, !tbaa !476
  %48 = getelementptr inbounds nuw %struct.gmx_ana_indexmap_t, ptr %47, i32 0, i32 6
  store i8 1, ptr %48, align 8, !tbaa !495
  ret void
}