; Function Attrs: mustprogress nofree norecurse nosync nounwind willreturn memory(argmem: write) uwtable
define void @_Z22gmx_ana_indexmap_clearP18gmx_ana_indexmap_t(ptr noundef writeonly captures(none) initializes((0, 4), (8, 28), (32, 44), (48, 76), (80, 92), (96, 113)) %0) local_unnamed_addr #17 {
  store i32 0, ptr %0, align 8, !tbaa !248
  %2 = getelementptr inbounds nuw i8, ptr %0, i64 8
  %3 = getelementptr inbounds nuw i8, ptr %0, i64 32
  store ptr null, ptr %3, align 8, !tbaa !251
  %4 = getelementptr inbounds nuw i8, ptr %0, i64 40
  store i32 0, ptr %4, align 8, !tbaa !252
  %5 = getelementptr inbounds nuw i8, ptr %0, i64 48
  %6 = getelementptr inbounds nuw i8, ptr %0, i64 80
  store ptr null, ptr %6, align 8, !tbaa !253
  %7 = getelementptr inbounds nuw i8, ptr %0, i64 88
  store i32 0, ptr %7, align 8, !tbaa !254
  %8 = getelementptr inbounds nuw i8, ptr %0, i64 96
  %9 = getelementptr inbounds nuw i8, ptr %0, i64 112
  tail call void @llvm.memset.p0.i64(ptr noundef nonnull align 8 dereferenceable(20) %2, i8 0, i64 20, i1 false)
  tail call void @llvm.memset.p0.i64(ptr noundef nonnull align 8 dereferenceable(28) %5, i8 0, i64 28, i1 false)
  tail call void @llvm.memset.p0.i64(ptr noundef nonnull align 8 dereferenceable(16) %8, i8 0, i64 16, i1 false)
  store i8 1, ptr %9, align 8, !tbaa !255
  ret void
}